target datalayout = "e-m:e-p270:32:32-p271:32:32-p272:64:64-i64:64-i128:128-f80:128-n8:16:32:64-S128"
target triple = "x86_64-pc-linux-gnu"

%struct._php_stream_bucket = type { ptr, ptr, ptr, ptr, i64, i8, i8, i32 }

; Function Attrs: nounwind uwtable
define void @php_stream_bucket_delref(ptr noundef %0) #0 {
  %2 = alloca ptr, align 8
  store ptr %0, ptr %2, align 8
  %3 = load ptr, ptr %2, align 8
  %4 = getelementptr inbounds %struct._php_stream_bucket, ptr %3, i32 0, i32 7
  %5 = load i32, ptr %4, align 4
  %6 = add nsw i32 %5, -1
  store i32 %6, ptr %4, align 4
  %7 = icmp eq i32 %6, 0
  br i1 %7, label %8, label %39

8:                                                ; preds = %1
  %9 = load ptr, ptr %2, align 8
  %10 = getelementptr inbounds %struct._php_stream_bucket, ptr %9, i32 0, i32 5
  %11 = load i8, ptr %10, align 8
  %12 = icmp ne i8 %11, 0
  br i1 %12, label %13, label %28

13:                                               ; preds = %8
  %14 = load ptr, ptr %2, align 8
  %15 = getelementptr inbounds %struct._php_stream_bucket, ptr %14, i32 0, i32 6
  %16 = load i8, ptr %15, align 1
  %17 = zext i8 %16 to i32
  %18 = icmp ne i32 %17, 0
  br i1 %18, label %19, label %23

19:                                               ; preds = %13
  %20 = load ptr, ptr %2, align 8
  %21 = getelementptr inbounds %struct._php_stream_bucket, ptr %20, i32 0, i32 3
  %22 = load ptr, ptr %21, align 8
  call void @free(ptr noundef %22) #12
  br label %27

23:                                               ; preds = %13
  %24 = load ptr, ptr %2, align 8
  %25 = getelementptr inbounds %struct._php_stream_bucket, ptr %24, i32 0, i32 3
  %26 = load ptr, ptr %25, align 8
  call void @_efree(ptr noundef %26)
  br label %27

27:                                               ; preds = %23, %19
  br label %28

28:                                               ; preds = %27, %8
  %29 = load ptr, ptr %2, align 8
  %30 = getelementptr inbounds %struct._php_stream_bucket, ptr %29, i32 0, i32 6
  %31 = load i8, ptr %30, align 1
  %32 = zext i8 %31 to i32
  %33 = icmp ne i32 %32, 0
  br i1 %33, label %34, label %36

34:                                               ; preds = %28
  %35 = load ptr, ptr %2, align 8
  call void @free(ptr noundef %35) #12
  br label %38

36:                                               ; preds = %28
  %37 = load ptr, ptr %2, align 8
  call void @_efree(ptr noundef %37)
  br label %38

38:                                               ; preds = %36, %34
  br label %39

39:                                               ; preds = %38, %1
  ret void
}