; Function Attrs: nounwind uwtable
define void @php_stream_bucket_delref(ptr noundef %0) local_unnamed_addr #2 {
  %2 = getelementptr inbounds i8, ptr %0, i64 44
  %3 = load i32, ptr %2, align 4
  %4 = add nsw i32 %3, -1
  store i32 %4, ptr %2, align 4
  %5 = icmp eq i32 %4, 0
  br i1 %5, label %6, label %21

6:                                                ; preds = %1
  %7 = getelementptr inbounds i8, ptr %0, i64 40
  %8 = load i8, ptr %7, align 8
  %.not = icmp eq i8 %8, 0
  br i1 %.not, label %16, label %9

9:                                                ; preds = %6
  %10 = getelementptr inbounds i8, ptr %0, i64 41
  %11 = load i8, ptr %10, align 1
  %.not8 = icmp eq i8 %11, 0
  %12 = getelementptr inbounds i8, ptr %0, i64 24
  %13 = load ptr, ptr %12, align 8
  br i1 %.not8, label %15, label %14

14:                                               ; preds = %9
  tail call void @free(ptr noundef %13) #14
  br label %16

15:                                               ; preds = %9
  tail call void @_efree(ptr noundef %13) #14
  br label %16

16:                                               ; preds = %14, %15, %6
  %17 = getelementptr inbounds i8, ptr %0, i64 41
  %18 = load i8, ptr %17, align 1
  %.not9 = icmp eq i8 %18, 0
  br i1 %.not9, label %20, label %19

19:                                               ; preds = %16
  tail call void @free(ptr noundef nonnull %0) #14
  br label %21

20:                                               ; preds = %16
  tail call void @_efree(ptr noundef nonnull %0) #14
  br label %21

21:                                               ; preds = %19, %20, %1
  ret void
}